target datalayout = "e-m:e-p270:32:32-p271:32:32-p272:64:64-i64:64-i128:128-f80:128-n8:16:32:64-S128"
target triple = "x86_64-pc-linux-gnu"

@g_Parallel = external global i8, align 1
@.str.77 = private unnamed_addr constant [23 x i8] c"%lu differences found\0A\00", align 1
@stdout = external global ptr, align 8

; Function Attrs: nounwind uwtable
define void @print_found(i64 noundef %0) #0 {
  %2 = alloca i64, align 8
  store i64 %0, ptr %2, align 8, !tbaa !10
  %3 = load i8, ptr @g_Parallel, align 1, !tbaa !16
  %4 = icmp ne i8 %3, 0
  br i1 %4, label %5, label %7

5:                                                ; preds = %1
  %6 = load i64, ptr %2, align 8, !tbaa !10
  call void (ptr, ...) @parallel_print(ptr noundef @.str.77, i64 noundef %6)
  br label %11

7:                                                ; preds = %1
  %8 = load ptr, ptr @stdout, align 8, !tbaa !19
  %9 = load i64, ptr %2, align 8, !tbaa !10
  %10 = call i32 (ptr, ptr, ...) @fprintf(ptr noundef %8, ptr noundef @.str.77, i64 noundef %9) #7
  br label %11

11:                                               ; preds = %7, %5
  ret void
}