; Function Attrs: nounwind uwtable
define void @print_found(i64 noundef %0) local_unnamed_addr #0 {
  %2 = load i8, ptr @g_Parallel, align 1, !tbaa !9
  %.not = icmp eq i8 %2, 0
  br i1 %.not, label %4, label %3

3:                                                ; preds = %1
  tail call void (ptr, ...) @parallel_print(ptr noundef nonnull @.str.77, i64 noundef %0) #7
  br label %7

4:                                                ; preds = %1
  %5 = load ptr, ptr @stdout, align 8, !tbaa !12
  %6 = tail call i32 (ptr, ptr, ...) @fprintf(ptr noundef %5, ptr noundef nonnull @.str.77, i64 noundef %0) #7
  br label %7

7:                                                ; preds = %4, %3
  ret void
}